target datalayout = "e-m:e-p270:32:32-p271:32:32-p272:64:64-i64:64-i128:128-f80:128-n8:16:32:64-S128"
target triple = "x86_64-unknown-linux-gnu"

%"struct.node::AssertionInfo" = type { ptr, ptr, ptr }
%"class.v8::IndirectHandleBase" = type { ptr }
%"class.node::MemoryRetainer" = type { ptr }
%struct.uv__queue = type { ptr, ptr }
%"class.node::AsyncWrap" = type { %"class.node::BaseObject", i32, i8, double, double }
%"class.node::BaseObject" = type { %"class.node::MemoryRetainer", %"class.v8::Global.269", ptr, ptr }
%"class.v8::Global.269" = type { %"class.v8::PersistentBase.270" }
%"class.v8::PersistentBase.270" = type { %"class.v8::IndirectHandleBase" }
%"class.node::ThreadPoolWork" = type { ptr, ptr, %struct.uv_work_s, ptr }
%struct.uv_work_s = type { ptr, i32, [6 x ptr], ptr, ptr, ptr, %struct.uv__work }
%struct.uv__work = type { ptr, ptr, ptr, %struct.uv__queue }
%"struct.std::atomic.271" = type { %"struct.std::__atomic_base.272" }
%"struct.std::__atomic_base.272" = type { i64 }
%"class.node::(anonymous namespace)::CompressionStream.415" = type { %"class.node::AsyncWrap", %"class.node::ThreadPoolWork", i8, i8, i8, i8, i32, ptr, %"struct.std::atomic.271", i64, %"class.node::(anonymous namespace)::BrotliEncoderContext" }
%"class.node::(anonymous namespace)::BrotliEncoderContext" = type { %"class.node::(anonymous namespace)::BrotliContext", i8, %"class.std::unique_ptr.416" }
%"class.node::(anonymous namespace)::BrotliContext" = type { %"class.node::MemoryRetainer", i32, ptr, ptr, i64, i64, i32, ptr, ptr, ptr }
%"class.std::unique_ptr.416" = type { %"struct.std::__uniq_ptr_data.417" }
%"struct.std::__uniq_ptr_data.417" = type { %"class.std::__uniq_ptr_impl.418" }
%"class.std::__uniq_ptr_impl.418" = type { %"class.std::tuple.419" }
%"class.std::tuple.419" = type { %"struct.std::_Tuple_impl.420" }
%"struct.std::_Tuple_impl.420" = type { %"struct.std::_Head_base.423" }
%"struct.std::_Head_base.423" = type { ptr }

@_ZZN4node12_GLOBAL__N_117CompressionStreamINS0_20BrotliEncoderContextEED1EvE4args = internal constant %"struct.node::AssertionInfo" { ptr @.str.134, ptr @.str.135, ptr @.str.265 }, align 8
@_ZZN4node12_GLOBAL__N_117CompressionStreamINS0_20BrotliEncoderContextEED1EvE4args_0 = internal constant %"struct.node::AssertionInfo" { ptr @.str.137, ptr @.str.138, ptr @.str.265 }, align 8
@_ZZN4node12_GLOBAL__N_117CompressionStreamINS0_20BrotliEncoderContextEED1EvE4args_1 = internal constant %"struct.node::AssertionInfo" { ptr @.str.139, ptr @.str.140, ptr @.str.265 }, align 8

; Function Attrs: mustprogress nounwind uwtable
define linkonce_odr dso_local noundef nonnull align 1 dereferenceable(1) ptr @_ZNSt10_Head_baseILm1EN4node15FunctionDeleterI24BrotliEncoderStateStructXadL_Z28BrotliEncoderDestroyInstanceEEEELb1EE7_M_headERS4_(ptr noundef nonnull align 1 dereferenceable(1) %__b) #4 comdat align 2 {
entry:
  %__b.addr = alloca ptr, align 8
  store ptr %__b, ptr %__b.addr, align 8
  %0 = load ptr, ptr %__b.addr, align 8
  ret ptr %0
}

; Function Attrs: mustprogress nounwind uwtable
define linkonce_odr dso_local noundef nonnull align 1 dereferenceable(1) ptr @_ZNSt11_Tuple_implILm1EJN4node15FunctionDeleterI24BrotliEncoderStateStructXadL_Z28BrotliEncoderDestroyInstanceEEEEEE7_M_headERS4_(ptr noundef nonnull align 1 dereferenceable(1) %__t) #4 comdat align 2 {
entry:
  %__t.addr = alloca ptr, align 8
  store ptr %__t, ptr %__t.addr, align 8
  %0 = load ptr, ptr %__t.addr, align 8
  %call = call noundef nonnull align 1 dereferenceable(1) ptr @_ZNSt10_Head_baseILm1EN4node15FunctionDeleterI24BrotliEncoderStateStructXadL_Z28BrotliEncoderDestroyInstanceEEEELb1EE7_M_headERS4_(ptr noundef nonnull align 1 dereferenceable(1) %0) #3
  ret ptr %call
}

; Function Attrs: mustprogress nounwind uwtable
define linkonce_odr dso_local noundef nonnull align 8 dereferenceable(8) ptr @_ZNSt10_Head_baseILm0EP24BrotliEncoderStateStructLb0EE7_M_headERS2_(ptr noundef nonnull align 8 dereferenceable(8) %__b) #4 comdat align 2 {
entry:
  %__b.addr = alloca ptr, align 8
  store ptr %__b, ptr %__b.addr, align 8
  %0 = load ptr, ptr %__b.addr, align 8
  %_M_head_impl = getelementptr inbounds %"struct.std::_Head_base.423", ptr %0, i32 0, i32 0
  ret ptr %_M_head_impl
}

; Function Attrs: mustprogress nounwind uwtable
define linkonce_odr dso_local noundef nonnull align 1 dereferenceable(1) ptr @_ZSt12__get_helperILm1EN4node15FunctionDeleterI24BrotliEncoderStateStructXadL_Z28BrotliEncoderDestroyInstanceEEEEJEERT0_RSt11_Tuple_implIXT_EJS4_DpT1_EE(ptr noundef nonnull align 1 dereferenceable(1) %__t) #4 comdat {
entry:
  %__t.addr = alloca ptr, align 8
  store ptr %__t, ptr %__t.addr, align 8
  %0 = load ptr, ptr %__t.addr, align 8
  %call = call noundef nonnull align 1 dereferenceable(1) ptr @_ZNSt11_Tuple_implILm1EJN4node15FunctionDeleterI24BrotliEncoderStateStructXadL_Z28BrotliEncoderDestroyInstanceEEEEEE7_M_headERS4_(ptr noundef nonnull align 1 dereferenceable(1) %0) #3
  ret ptr %call
}

; Function Attrs: mustprogress nounwind uwtable
define linkonce_odr dso_local noundef nonnull align 8 dereferenceable(8) ptr @_ZNSt11_Tuple_implILm0EJP24BrotliEncoderStateStructN4node15FunctionDeleterIS0_XadL_Z28BrotliEncoderDestroyInstanceEEEEEE7_M_headERS5_(ptr noundef nonnull align 8 dereferenceable(8) %__t) #4 comdat align 2 {
entry:
  %__t.addr = alloca ptr, align 8
  store ptr %__t, ptr %__t.addr, align 8
  %0 = load ptr, ptr %__t.addr, align 8
  %call = call noundef nonnull align 8 dereferenceable(8) ptr @_ZNSt10_Head_baseILm0EP24BrotliEncoderStateStructLb0EE7_M_headERS2_(ptr noundef nonnull align 8 dereferenceable(8) %0) #3
  ret ptr %call
}

; Function Attrs: mustprogress nounwind uwtable
define linkonce_odr dso_local noundef nonnull align 1 dereferenceable(1) ptr @_ZSt3getILm1EJP24BrotliEncoderStateStructN4node15FunctionDeleterIS0_XadL_Z28BrotliEncoderDestroyInstanceEEEEEERNSt13tuple_elementIXT_ESt5tupleIJDpT0_EEE4typeERS9_(ptr noundef nonnull align 8 dereferenceable(8) %__t) #4 comdat {
entry:
  %__t.addr = alloca ptr, align 8
  store ptr %__t, ptr %__t.addr, align 8
  %0 = load ptr, ptr %__t.addr, align 8
  %call = call noundef nonnull align 1 dereferenceable(1) ptr @_ZSt12__get_helperILm1EN4node15FunctionDeleterI24BrotliEncoderStateStructXadL_Z28BrotliEncoderDestroyInstanceEEEEJEERT0_RSt11_Tuple_implIXT_EJS4_DpT1_EE(ptr noundef nonnull align 1 dereferenceable(1) %0) #3
  ret ptr %call
}

; Function Attrs: mustprogress nounwind uwtable
define linkonce_odr dso_local noundef nonnull align 8 dereferenceable(8) ptr @_ZSt12__get_helperILm0EP24BrotliEncoderStateStructJN4node15FunctionDeleterIS0_XadL_Z28BrotliEncoderDestroyInstanceEEEEEERT0_RSt11_Tuple_implIXT_EJS5_DpT1_EE(ptr noundef nonnull align 8 dereferenceable(8) %__t) #4 comdat {
entry:
  %__t.addr = alloca ptr, align 8
  store ptr %__t, ptr %__t.addr, align 8
  %0 = load ptr, ptr %__t.addr, align 8
  %call = call noundef nonnull align 8 dereferenceable(8) ptr @_ZNSt11_Tuple_implILm0EJP24BrotliEncoderStateStructN4node15FunctionDeleterIS0_XadL_Z28BrotliEncoderDestroyInstanceEEEEEE7_M_headERS5_(ptr noundef nonnull align 8 dereferenceable(8) %0) #3
  ret ptr %call
}

; Function Attrs: mustprogress nounwind uwtable
define linkonce_odr dso_local noundef nonnull align 1 dereferenceable(1) ptr @_ZNSt15__uniq_ptr_implI24BrotliEncoderStateStructN4node15FunctionDeleterIS0_XadL_Z28BrotliEncoderDestroyInstanceEEEEE10_M_deleterEv(ptr noundef nonnull align 8 dereferenceable(8) %this) #4 comdat align 2 {
entry:
  %this.addr = alloca ptr, align 8
  store ptr %this, ptr %this.addr, align 8
  %this1 = load ptr, ptr %this.addr, align 8
  %_M_t = getelementptr inbounds %"class.std::__uniq_ptr_impl.418", ptr %this1, i32 0, i32 0
  %call = call noundef nonnull align 1 dereferenceable(1) ptr @_ZSt3getILm1EJP24BrotliEncoderStateStructN4node15FunctionDeleterIS0_XadL_Z28BrotliEncoderDestroyInstanceEEEEEERNSt13tuple_elementIXT_ESt5tupleIJDpT0_EEE4typeERS9_(ptr noundef nonnull align 8 dereferenceable(8) %_M_t) #3
  ret ptr %call
}

; Function Attrs: mustprogress nounwind uwtable
define linkonce_odr dso_local noundef nonnull align 8 dereferenceable(8) ptr @_ZSt3getILm0EJP24BrotliEncoderStateStructN4node15FunctionDeleterIS0_XadL_Z28BrotliEncoderDestroyInstanceEEEEEERNSt13tuple_elementIXT_ESt5tupleIJDpT0_EEE4typeERS9_(ptr noundef nonnull align 8 dereferenceable(8) %__t) #4 comdat {
entry:
  %__t.addr = alloca ptr, align 8
  store ptr %__t, ptr %__t.addr, align 8
  %0 = load ptr, ptr %__t.addr, align 8
  %call = call noundef nonnull align 8 dereferenceable(8) ptr @_ZSt12__get_helperILm0EP24BrotliEncoderStateStructJN4node15FunctionDeleterIS0_XadL_Z28BrotliEncoderDestroyInstanceEEEEEERT0_RSt11_Tuple_implIXT_EJS5_DpT1_EE(ptr noundef nonnull align 8 dereferenceable(8) %0) #3
  ret ptr %call
}

; Function Attrs: mustprogress nounwind uwtable
define linkonce_odr dso_local void @_ZN4node14MemoryRetainerD2Ev(ptr noundef nonnull align 8 dereferenceable(8) %this) unnamed_addr #4 comdat align 2 {
entry:
  %this.addr = alloca ptr, align 8
  store ptr %this, ptr %this.addr, align 8
  ret void
}

; Function Attrs: mustprogress nounwind uwtable
define linkonce_odr dso_local void @_ZNK4node15FunctionDeleterI24BrotliEncoderStateStructXadL_Z28BrotliEncoderDestroyInstanceEEEclEPS1_(ptr noundef nonnull align 1 dereferenceable(1) %this, ptr noundef %pointer) #4 comdat align 2 {
entry:
  %this.addr = alloca ptr, align 8
  %pointer.addr = alloca ptr, align 8
  store ptr %this, ptr %this.addr, align 8
  store ptr %pointer, ptr %pointer.addr, align 8
  %0 = load ptr, ptr %pointer.addr, align 8
  call void @BrotliEncoderDestroyInstance(ptr noundef %0)
  ret void
}

; Function Attrs: mustprogress nounwind uwtable
define linkonce_odr dso_local noundef nonnull align 1 dereferenceable(1) ptr @_ZNSt10unique_ptrI24BrotliEncoderStateStructN4node15FunctionDeleterIS0_XadL_Z28BrotliEncoderDestroyInstanceEEEEE11get_deleterEv(ptr noundef nonnull align 8 dereferenceable(8) %this) #4 comdat align 2 {
entry:
  %this.addr = alloca ptr, align 8
  store ptr %this, ptr %this.addr, align 8
  %this1 = load ptr, ptr %this.addr, align 8
  %_M_t = getelementptr inbounds %"class.std::unique_ptr.416", ptr %this1, i32 0, i32 0
  %call = call noundef nonnull align 1 dereferenceable(1) ptr @_ZNSt15__uniq_ptr_implI24BrotliEncoderStateStructN4node15FunctionDeleterIS0_XadL_Z28BrotliEncoderDestroyInstanceEEEEE10_M_deleterEv(ptr noundef nonnull align 8 dereferenceable(8) %_M_t) #3
  ret ptr %call
}

; Function Attrs: mustprogress nounwind uwtable
define linkonce_odr dso_local noundef nonnull align 8 dereferenceable(8) ptr @_ZNSt15__uniq_ptr_implI24BrotliEncoderStateStructN4node15FunctionDeleterIS0_XadL_Z28BrotliEncoderDestroyInstanceEEEEE6_M_ptrEv(ptr noundef nonnull align 8 dereferenceable(8) %this) #4 comdat align 2 {
entry:
  %this.addr = alloca ptr, align 8
  store ptr %this, ptr %this.addr, align 8
  %this1 = load ptr, ptr %this.addr, align 8
  %_M_t = getelementptr inbounds %"class.std::__uniq_ptr_impl.418", ptr %this1, i32 0, i32 0
  %call = call noundef nonnull align 8 dereferenceable(8) ptr @_ZSt3getILm0EJP24BrotliEncoderStateStructN4node15FunctionDeleterIS0_XadL_Z28BrotliEncoderDestroyInstanceEEEEEERNSt13tuple_elementIXT_ESt5tupleIJDpT0_EEE4typeERS9_(ptr noundef nonnull align 8 dereferenceable(8) %_M_t) #3
  ret ptr %call
}

; Function Attrs: mustprogress nounwind uwtable
define internal void @_ZN4node12_GLOBAL__N_113BrotliContextD2Ev(ptr noundef nonnull align 8 dereferenceable(80) %this) unnamed_addr #4 align 2 {
entry:
  %this.addr = alloca ptr, align 8
  store ptr %this, ptr %this.addr, align 8
  %this1 = load ptr, ptr %this.addr, align 8
  call void @_ZN4node14MemoryRetainerD2Ev(ptr noundef nonnull align 8 dereferenceable(8) %this1) #3
  ret void
}

; Function Attrs: mustprogress nounwind uwtable
define linkonce_odr dso_local void @_ZNSt10unique_ptrI24BrotliEncoderStateStructN4node15FunctionDeleterIS0_XadL_Z28BrotliEncoderDestroyInstanceEEEEED2Ev(ptr noundef nonnull align 8 dereferenceable(8) %this) unnamed_addr #4 comdat align 2 {
entry:
  %this.addr = alloca ptr, align 8
  %__ptr = alloca ptr, align 8
  store ptr %this, ptr %this.addr, align 8
  %this1 = load ptr, ptr %this.addr, align 8
  %_M_t = getelementptr inbounds %"class.std::unique_ptr.416", ptr %this1, i32 0, i32 0
  %call = call noundef nonnull align 8 dereferenceable(8) ptr @_ZNSt15__uniq_ptr_implI24BrotliEncoderStateStructN4node15FunctionDeleterIS0_XadL_Z28BrotliEncoderDestroyInstanceEEEEE6_M_ptrEv(ptr noundef nonnull align 8 dereferenceable(8) %_M_t) #3
  store ptr %call, ptr %__ptr, align 8
  %0 = load ptr, ptr %__ptr, align 8
  %1 = load ptr, ptr %0, align 8
  %cmp = icmp ne ptr %1, null
  br i1 %cmp, label %if.then, label %if.end

if.then:                                          ; preds = %entry
  %call2 = call noundef nonnull align 1 dereferenceable(1) ptr @_ZNSt10unique_ptrI24BrotliEncoderStateStructN4node15FunctionDeleterIS0_XadL_Z28BrotliEncoderDestroyInstanceEEEEE11get_deleterEv(ptr noundef nonnull align 8 dereferenceable(8) %this1) #3
  %2 = load ptr, ptr %__ptr, align 8
  %3 = load ptr, ptr %2, align 8
  call void @_ZNK4node15FunctionDeleterI24BrotliEncoderStateStructXadL_Z28BrotliEncoderDestroyInstanceEEEclEPS1_(ptr noundef nonnull align 1 dereferenceable(1) %call2, ptr noundef %3)
  br label %if.end

if.end:                                           ; preds = %if.then, %entry
  %4 = load ptr, ptr %__ptr, align 8
  store ptr null, ptr %4, align 8
  ret void
}

; Function Attrs: mustprogress nounwind uwtable
define linkonce_odr dso_local noundef i32 @_ZStanSt12memory_orderSt23__memory_order_modifier(i32 noundef %__m, i32 noundef %__mod) #4 comdat {
entry:
  %__m.addr = alloca i32, align 4
  %__mod.addr = alloca i32, align 4
  store i32 %__m, ptr %__m.addr, align 4
  store i32 %__mod, ptr %__mod.addr, align 4
  %0 = load i32, ptr %__m.addr, align 4
  %1 = load i32, ptr %__mod.addr, align 4
  %and = and i32 %0, %1
  ret i32 %and
}

; Function Attrs: mustprogress nounwind uwtable
define linkonce_odr dso_local void @_ZN4node14ThreadPoolWorkD2Ev(ptr noundef nonnull align 8 dereferenceable(152) %this) unnamed_addr #4 comdat align 2 {
entry:
  %this.addr = alloca ptr, align 8
  store ptr %this, ptr %this.addr, align 8
  ret void
}

; Function Attrs: mustprogress nounwind uwtable
define internal void @_ZN4node12_GLOBAL__N_120BrotliEncoderContextD2Ev(ptr noundef nonnull align 8 dereferenceable(96) %this) unnamed_addr #4 align 2 {
entry:
  %this.addr = alloca ptr, align 8
  store ptr %this, ptr %this.addr, align 8
  %this1 = load ptr, ptr %this.addr, align 8
  %state_ = getelementptr inbounds %"class.node::(anonymous namespace)::BrotliEncoderContext", ptr %this1, i32 0, i32 2
  call void @_ZNSt10unique_ptrI24BrotliEncoderStateStructN4node15FunctionDeleterIS0_XadL_Z28BrotliEncoderDestroyInstanceEEEEED2Ev(ptr noundef nonnull align 8 dereferenceable(8) %state_) #3
  call void @_ZN4node12_GLOBAL__N_113BrotliContextD2Ev(ptr noundef nonnull align 8 dereferenceable(80) %this1) #3
  ret void
}

; Function Attrs: mustprogress nounwind uwtable
define linkonce_odr dso_local noundef i64 @_ZNKSt13__atomic_baseIlEcvlEv(ptr noundef nonnull align 8 dereferenceable(8) %this) #4 comdat align 2 {
entry:
  %this.addr.i = alloca ptr, align 8
  %__m.addr.i = alloca i32, align 4
  %__b.i = alloca i32, align 4
  %atomic-temp.i = alloca i64, align 8
  %this.addr = alloca ptr, align 8
  store ptr %this, ptr %this.addr, align 8
  %this1 = load ptr, ptr %this.addr, align 8
  store ptr %this1, ptr %this.addr.i, align 8
  store i32 5, ptr %__m.addr.i, align 4
  %this1.i = load ptr, ptr %this.addr.i, align 8
  %0 = load i32, ptr %__m.addr.i, align 4
  %call.i = call noundef i32 @_ZStanSt12memory_orderSt23__memory_order_modifier(i32 noundef %0, i32 noundef 65535)
  store i32 %call.i, ptr %__b.i, align 4
  %1 = load i32, ptr %__m.addr.i, align 4
  switch i32 %1, label %monotonic.i [
    i32 1, label %acquire.i
    i32 2, label %acquire.i
    i32 5, label %seqcst.i
  ]

monotonic.i:                                      ; preds = %entry
  %2 = load atomic i64, ptr %this1.i monotonic, align 8
  store i64 %2, ptr %atomic-temp.i, align 8
  br label %_ZNKSt13__atomic_baseIlE4loadESt12memory_order.exit

acquire.i:                                        ; preds = %entry, %entry
  %3 = load atomic i64, ptr %this1.i acquire, align 8
  store i64 %3, ptr %atomic-temp.i, align 8
  br label %_ZNKSt13__atomic_baseIlE4loadESt12memory_order.exit

seqcst.i:                                         ; preds = %entry
  %4 = load atomic i64, ptr %this1.i seq_cst, align 8
  store i64 %4, ptr %atomic-temp.i, align 8
  br label %_ZNKSt13__atomic_baseIlE4loadESt12memory_order.exit

_ZNKSt13__atomic_baseIlE4loadESt12memory_order.exit: ; preds = %seqcst.i, %acquire.i, %monotonic.i
  %5 = load i64, ptr %atomic-temp.i, align 8
  ret i64 %5
}

; Function Attrs: mustprogress nounwind uwtable
define internal void @_ZN4node12_GLOBAL__N_117CompressionStreamINS0_20BrotliEncoderContextEED2Ev(ptr noundef nonnull align 8 dereferenceable(336) %this) unnamed_addr #4 align 2 {
entry:
  %this.addr = alloca ptr, align 8
  store ptr %this, ptr %this.addr, align 8
  %this1 = load ptr, ptr %this.addr, align 8
  store ptr getelementptr inbounds ({ [22 x ptr], [6 x ptr] }, ptr @_ZTVN4node12_GLOBAL__N_117CompressionStreamINS0_20BrotliEncoderContextEEE, i32 0, i32 0, i32 2), ptr %this1, align 8
  %add.ptr = getelementptr inbounds i8, ptr %this1, i64 56
  store ptr getelementptr inbounds ({ [22 x ptr], [6 x ptr] }, ptr @_ZTVN4node12_GLOBAL__N_117CompressionStreamINS0_20BrotliEncoderContextEEE, i32 0, i32 1, i32 2), ptr %add.ptr, align 8
  br label %do.body

do.body:                                          ; preds = %entry
  %write_in_progress_ = getelementptr inbounds %"class.node::(anonymous namespace)::CompressionStream.415", ptr %this1, i32 0, i32 3
  %0 = load i8, ptr %write_in_progress_, align 1
  %tobool = trunc i8 %0 to i1
  %lnot = xor i1 %tobool, true
  %lnot2 = xor i1 %lnot, true
  %lnot3 = xor i1 %lnot2, true
  %lnot4 = xor i1 %lnot3, true
  br i1 %lnot4, label %if.then, label %if.end

if.then:                                          ; preds = %do.body
  br label %do.body5

do.body5:                                         ; preds = %if.then
  call void @_ZN4node6AssertERKNS_13AssertionInfoE(ptr noundef nonnull align 8 dereferenceable(24) @_ZZN4node12_GLOBAL__N_117CompressionStreamINS0_20BrotliEncoderContextEED1EvE4args)
  call void @abort() #13
  unreachable

do.cond:                                          ; No predecessors!
  br label %do.end

do.end:                                           ; preds = %do.cond
  br label %if.end

if.end:                                           ; preds = %do.end, %do.body
  br label %do.cond6

do.cond6:                                         ; preds = %if.end
  br label %do.end7

do.end7:                                          ; preds = %do.cond6
  call void @_ZN4node12_GLOBAL__N_117CompressionStreamINS0_20BrotliEncoderContextEE5CloseEv(ptr noundef nonnull align 8 dereferenceable(336) %this1)
  br label %do.body8

do.body8:                                         ; preds = %do.end7
  %zlib_memory_ = getelementptr inbounds %"class.node::(anonymous namespace)::CompressionStream.415", ptr %this1, i32 0, i32 9
  %1 = load i64, ptr %zlib_memory_, align 8
  %cmp = icmp eq i64 %1, 0
  %lnot9 = xor i1 %cmp, true
  %lnot10 = xor i1 %lnot9, true
  %lnot11 = xor i1 %lnot10, true
  br i1 %lnot11, label %if.then12, label %if.end16

if.then12:                                        ; preds = %do.body8
  br label %do.body13

do.body13:                                        ; preds = %if.then12
  call void @_ZN4node6AssertERKNS_13AssertionInfoE(ptr noundef nonnull align 8 dereferenceable(24) @_ZZN4node12_GLOBAL__N_117CompressionStreamINS0_20BrotliEncoderContextEED1EvE4args_0)
  call void @abort() #13
  unreachable

do.cond14:                                        ; No predecessors!
  br label %do.end15

do.end15:                                         ; preds = %do.cond14
  br label %if.end16

if.end16:                                         ; preds = %do.end15, %do.body8
  br label %do.cond17

do.cond17:                                        ; preds = %if.end16
  br label %do.end18

do.end18:                                         ; preds = %do.cond17
  br label %do.body19

do.body19:                                        ; preds = %do.end18
  %unreported_allocations_ = getelementptr inbounds %"class.node::(anonymous namespace)::CompressionStream.415", ptr %this1, i32 0, i32 8
  %call = call noundef i64 @_ZNKSt13__atomic_baseIlEcvlEv(ptr noundef nonnull align 8 dereferenceable(8) %unreported_allocations_) #3
  %cmp20 = icmp eq i64 %call, 0
  %lnot21 = xor i1 %cmp20, true
  %lnot22 = xor i1 %lnot21, true
  %lnot23 = xor i1 %lnot22, true
  br i1 %lnot23, label %if.then24, label %if.end28

if.then24:                                        ; preds = %do.body19
  br label %do.body25

do.body25:                                        ; preds = %if.then24
  call void @_ZN4node6AssertERKNS_13AssertionInfoE(ptr noundef nonnull align 8 dereferenceable(24) @_ZZN4node12_GLOBAL__N_117CompressionStreamINS0_20BrotliEncoderContextEED1EvE4args_1)
  call void @abort() #13
  unreachable

do.cond26:                                        ; No predecessors!
  br label %do.end27

do.end27:                                         ; preds = %do.cond26
  br label %if.end28

if.end28:                                         ; preds = %do.end27, %do.body19
  br label %do.cond29

do.cond29:                                        ; preds = %if.end28
  br label %do.end30

do.end30:                                         ; preds = %do.cond29
  %ctx_ = getelementptr inbounds %"class.node::(anonymous namespace)::CompressionStream.415", ptr %this1, i32 0, i32 10
  call void @_ZN4node12_GLOBAL__N_120BrotliEncoderContextD2Ev(ptr noundef nonnull align 8 dereferenceable(96) %ctx_) #3
  %2 = getelementptr inbounds i8, ptr %this1, i64 56
  call void @_ZN4node14ThreadPoolWorkD2Ev(ptr noundef nonnull align 8 dereferenceable(152) %2) #3
  call void @_ZN4node9AsyncWrapD2Ev(ptr noundef nonnull align 8 dereferenceable(56) %this1) #3
  ret void
}